target datalayout = "e-m:e-p270:32:32-p271:32:32-p272:64:64-i64:64-i128:128-f80:128-n8:16:32:64-S128"
target triple = "x86_64-pc-linux-gnu"

%struct._ts = type { ptr, ptr, ptr, i64, %struct.anon, i32, i32, i32, i32, i32, i32, i32, i32, ptr, ptr, ptr, ptr, ptr, ptr, ptr, ptr, i32, ptr, i64, i64, ptr, i64, i32, ptr, ptr, ptr, i64, i64, ptr, ptr, ptr, %struct._err_stackitem, ptr, i64, ptr, ptr }
%struct.anon = type { i32 }
%struct._err_stackitem = type { ptr, ptr }
%struct._PyASTOptimizeState = type { i32, i32, i32, i32 }
%struct._mod = type { i32, %union.anon }
%union.anon = type { %struct.anon.0 }
%struct.anon.0 = type { ptr, ptr }
%struct.anon.1 = type { ptr }
%struct.asdl_stmt_seq = type { i64, ptr, [1 x ptr] }
%struct.anon.2 = type { ptr }

@PyExc_SystemError = external global ptr, align 8
@.str = private unnamed_addr constant [61 x i8] c"AST optimizer recursion depth mismatch (before=%d, after=%d)\00", align 1
@_Py_tss_tstate = external thread_local global ptr, align 8

; Function Attrs: nounwind uwtable
define internal i32 @astfold_mod(ptr noundef %0, ptr noundef %1, ptr noundef %2) #0 {
  %4 = alloca i32, align 4
  %5 = alloca ptr, align 8
  %6 = alloca ptr, align 8
  %7 = alloca ptr, align 8
  %8 = alloca i64, align 8
  %9 = alloca ptr, align 8
  %10 = alloca ptr, align 8
  %11 = alloca i32, align 4
  store ptr %0, ptr %5, align 8, !tbaa !4
  store ptr %1, ptr %6, align 8, !tbaa !9
  store ptr %2, ptr %7, align 8, !tbaa !32
  %12 = load ptr, ptr %5, align 8, !tbaa !4
  %13 = getelementptr inbounds nuw %struct._mod, ptr %12, i32 0, i32 0
  %14 = load i32, ptr %13, align 8, !tbaa !33
  switch i32 %14, label %80 [
    i32 1, label %15
    i32 2, label %26
    i32 3, label %69
    i32 4, label %80
  ]

15:                                               ; preds = %3
  %16 = load ptr, ptr %5, align 8, !tbaa !4
  %17 = getelementptr inbounds nuw %struct._mod, ptr %16, i32 0, i32 1
  %18 = getelementptr inbounds nuw %struct.anon.0, ptr %17, i32 0, i32 0
  %19 = load ptr, ptr %18, align 8, !tbaa !35
  %20 = load ptr, ptr %6, align 8, !tbaa !9
  %21 = load ptr, ptr %7, align 8, !tbaa !32
  %22 = call i32 @astfold_body(ptr noundef %19, ptr noundef %20, ptr noundef %21)
  %23 = icmp ne i32 %22, 0
  br i1 %23, label %25, label %24

24:                                               ; preds = %15
  store i32 0, ptr %4, align 4
  br label %81

25:                                               ; preds = %15
  br label %80

26:                                               ; preds = %3
  call void @llvm.lifetime.start.p0(i64 8, ptr %8) #8
  call void @llvm.lifetime.start.p0(i64 8, ptr %9) #8
  %27 = load ptr, ptr %5, align 8, !tbaa !4
  %28 = getelementptr inbounds nuw %struct._mod, ptr %27, i32 0, i32 1
  %29 = getelementptr inbounds nuw %struct.anon.1, ptr %28, i32 0, i32 0
  %30 = load ptr, ptr %29, align 8, !tbaa !35
  store ptr %30, ptr %9, align 8, !tbaa !32
  store i64 0, ptr %8, align 8, !tbaa !36
  br label %31

31:                                               ; preds = %62, %26
  %32 = load i64, ptr %8, align 8, !tbaa !36
  %33 = load ptr, ptr %9, align 8, !tbaa !32
  %34 = icmp eq ptr %33, null
  br i1 %34, label %35, label %36

35:                                               ; preds = %31
  br label %40

36:                                               ; preds = %31
  %37 = load ptr, ptr %9, align 8, !tbaa !32
  %38 = getelementptr inbounds nuw %struct.asdl_stmt_seq, ptr %37, i32 0, i32 0
  %39 = load i64, ptr %38, align 8, !tbaa !37
  br label %40

40:                                               ; preds = %36, %35
  %41 = phi i64 [ 0, %35 ], [ %39, %36 ]
  %42 = icmp slt i64 %32, %41
  br i1 %42, label %43, label %65

43:                                               ; preds = %40
  call void @llvm.lifetime.start.p0(i64 8, ptr %10) #8
  %44 = load ptr, ptr %9, align 8, !tbaa !32
  %45 = getelementptr inbounds nuw %struct.asdl_stmt_seq, ptr %44, i32 0, i32 2
  %46 = load i64, ptr %8, align 8, !tbaa !36
  %47 = getelementptr [1 x ptr], ptr %45, i64 0, i64 %46
  %48 = load ptr, ptr %47, align 8, !tbaa !39
  store ptr %48, ptr %10, align 8, !tbaa !39
  %49 = load ptr, ptr %10, align 8, !tbaa !39
  %50 = icmp ne ptr %49, null
  br i1 %50, label %51, label %58

51:                                               ; preds = %43
  %52 = load ptr, ptr %10, align 8, !tbaa !39
  %53 = load ptr, ptr %6, align 8, !tbaa !9
  %54 = load ptr, ptr %7, align 8, !tbaa !32
  %55 = call i32 @astfold_stmt(ptr noundef %52, ptr noundef %53, ptr noundef %54)
  %56 = icmp ne i32 %55, 0
  br i1 %56, label %58, label %57

57:                                               ; preds = %51
  store i32 0, ptr %4, align 4
  store i32 1, ptr %11, align 4
  br label %59

58:                                               ; preds = %51, %43
  store i32 0, ptr %11, align 4
  br label %59

59:                                               ; preds = %58, %57
  call void @llvm.lifetime.end.p0(i64 8, ptr %10) #8
  %60 = load i32, ptr %11, align 4
  switch i32 %60, label %66 [
    i32 0, label %61
  ]

61:                                               ; preds = %59
  br label %62

62:                                               ; preds = %61
  %63 = load i64, ptr %8, align 8, !tbaa !36
  %64 = add i64 %63, 1
  store i64 %64, ptr %8, align 8, !tbaa !36
  br label %31, !llvm.loop !41

65:                                               ; preds = %40
  store i32 0, ptr %11, align 4
  br label %66

66:                                               ; preds = %65, %59
  call void @llvm.lifetime.end.p0(i64 8, ptr %9) #8
  call void @llvm.lifetime.end.p0(i64 8, ptr %8) #8
  %67 = load i32, ptr %11, align 4
  switch i32 %67, label %83 [
    i32 0, label %68
    i32 1, label %81
  ]

68:                                               ; preds = %66
  br label %80

69:                                               ; preds = %3
  %70 = load ptr, ptr %5, align 8, !tbaa !4
  %71 = getelementptr inbounds nuw %struct._mod, ptr %70, i32 0, i32 1
  %72 = getelementptr inbounds nuw %struct.anon.2, ptr %71, i32 0, i32 0
  %73 = load ptr, ptr %72, align 8, !tbaa !35
  %74 = load ptr, ptr %6, align 8, !tbaa !9
  %75 = load ptr, ptr %7, align 8, !tbaa !32
  %76 = call i32 @astfold_expr(ptr noundef %73, ptr noundef %74, ptr noundef %75)
  %77 = icmp ne i32 %76, 0
  br i1 %77, label %79, label %78

78:                                               ; preds = %69
  store i32 0, ptr %4, align 4
  br label %81

79:                                               ; preds = %69
  br label %80

80:                                               ; preds = %3, %3, %79, %68, %25
  store i32 1, ptr %4, align 4
  br label %81

81:                                               ; preds = %80, %78, %66, %24
  %82 = load i32, ptr %4, align 4
  ret i32 %82

83:                                               ; preds = %66
  unreachable
}

; Function Attrs: inlinehint nounwind uwtable
define internal ptr @_PyThreadState_GET() #2 {
  %1 = call align 8 ptr @llvm.threadlocal.address.p0(ptr align 8 @_Py_tss_tstate)
  %2 = load ptr, ptr %1, align 8, !tbaa !16
  ret ptr %2
}

; Function Attrs: nounwind uwtable
define hidden i32 @_PyAST_Optimize(ptr noundef %0, ptr noundef %1, i32 noundef %2, i32 noundef %3) #0 {
  %5 = alloca i32, align 4
  %6 = alloca ptr, align 8
  %7 = alloca ptr, align 8
  %8 = alloca i32, align 4
  %9 = alloca i32, align 4
  %10 = alloca ptr, align 8
  %11 = alloca i32, align 4
  %12 = alloca %struct._PyASTOptimizeState, align 4
  %13 = alloca i32, align 4
  %14 = alloca i32, align 4
  %15 = alloca i32, align 4
  store ptr %0, ptr %6, align 8, !tbaa !4
  store ptr %1, ptr %7, align 8, !tbaa !9
  store i32 %2, ptr %8, align 4, !tbaa !11
  store i32 %3, ptr %9, align 4, !tbaa !11
  call void @llvm.lifetime.start.p0(i64 8, ptr %10) #8
  call void @llvm.lifetime.start.p0(i64 4, ptr %11) #8
  call void @llvm.lifetime.start.p0(i64 16, ptr %12) #8
  %16 = load i32, ptr %8, align 4, !tbaa !11
  %17 = getelementptr inbounds nuw %struct._PyASTOptimizeState, ptr %12, i32 0, i32 0
  store i32 %16, ptr %17, align 4, !tbaa !13
  %18 = load i32, ptr %9, align 4, !tbaa !11
  %19 = getelementptr inbounds nuw %struct._PyASTOptimizeState, ptr %12, i32 0, i32 1
  store i32 %18, ptr %19, align 4, !tbaa !15
  %20 = call ptr @_PyThreadState_GET()
  store ptr %20, ptr %10, align 8, !tbaa !16
  %21 = load ptr, ptr %10, align 8, !tbaa !16
  %22 = icmp ne ptr %21, null
  br i1 %22, label %24, label %23

23:                                               ; preds = %4
  store i32 0, ptr %5, align 4
  store i32 1, ptr %13, align 4
  br label %52

24:                                               ; preds = %4
  call void @llvm.lifetime.start.p0(i64 4, ptr %14) #8
  %25 = load ptr, ptr %10, align 8, !tbaa !16
  %26 = getelementptr inbounds nuw %struct._ts, ptr %25, i32 0, i32 9
  %27 = load i32, ptr %26, align 4, !tbaa !18
  %28 = sub i32 10000, %27
  store i32 %28, ptr %14, align 4, !tbaa !11
  %29 = load i32, ptr %14, align 4, !tbaa !11
  store i32 %29, ptr %11, align 4, !tbaa !11
  %30 = load i32, ptr %11, align 4, !tbaa !11
  %31 = getelementptr inbounds nuw %struct._PyASTOptimizeState, ptr %12, i32 0, i32 2
  store i32 %30, ptr %31, align 4, !tbaa !29
  %32 = getelementptr inbounds nuw %struct._PyASTOptimizeState, ptr %12, i32 0, i32 3
  store i32 10000, ptr %32, align 4, !tbaa !30
  call void @llvm.lifetime.start.p0(i64 4, ptr %15) #8
  %33 = load ptr, ptr %6, align 8, !tbaa !4
  %34 = load ptr, ptr %7, align 8, !tbaa !9
  %35 = call i32 @astfold_mod(ptr noundef %33, ptr noundef %34, ptr noundef %12)
  store i32 %35, ptr %15, align 4, !tbaa !11
  %36 = load i32, ptr %15, align 4, !tbaa !11
  %37 = icmp ne i32 %36, 0
  br i1 %37, label %38, label %49

38:                                               ; preds = %24
  %39 = getelementptr inbounds nuw %struct._PyASTOptimizeState, ptr %12, i32 0, i32 2
  %40 = load i32, ptr %39, align 4, !tbaa !29
  %41 = load i32, ptr %11, align 4, !tbaa !11
  %42 = icmp ne i32 %40, %41
  br i1 %42, label %43, label %49

43:                                               ; preds = %38
  %44 = load ptr, ptr @PyExc_SystemError, align 8, !tbaa !31
  %45 = load i32, ptr %11, align 4, !tbaa !11
  %46 = getelementptr inbounds nuw %struct._PyASTOptimizeState, ptr %12, i32 0, i32 2
  %47 = load i32, ptr %46, align 4, !tbaa !29
  %48 = call ptr (ptr, ptr, ...) @PyErr_Format(ptr noundef %44, ptr noundef @.str, i32 noundef %45, i32 noundef %47)
  store i32 0, ptr %5, align 4
  store i32 1, ptr %13, align 4
  br label %51

49:                                               ; preds = %38, %24
  %50 = load i32, ptr %15, align 4, !tbaa !11
  store i32 %50, ptr %5, align 4
  store i32 1, ptr %13, align 4
  br label %51

51:                                               ; preds = %49, %43
  call void @llvm.lifetime.end.p0(i64 4, ptr %15) #8
  call void @llvm.lifetime.end.p0(i64 4, ptr %14) #8
  br label %52

52:                                               ; preds = %51, %23
  call void @llvm.lifetime.end.p0(i64 16, ptr %12) #8
  call void @llvm.lifetime.end.p0(i64 4, ptr %11) #8
  call void @llvm.lifetime.end.p0(i64 8, ptr %10) #8
  %53 = load i32, ptr %5, align 4
  ret i32 %53
}