; Function Attrs: nounwind uwtable
define hidden range(i32 0, 2) i32 @_PyAST_Optimize(ptr noundef readonly captures(none) %0, ptr noundef %1, i32 noundef %2, i32 noundef %3) local_unnamed_addr #0 {
  %5 = alloca %struct._PyASTOptimizeState, align 4
  call void @llvm.lifetime.start.p0(i64 16, ptr nonnull %5) #8
  store i32 %2, ptr %5, align 4, !tbaa !4
  %6 = getelementptr inbounds nuw i8, ptr %5, i64 4
  store i32 %3, ptr %6, align 4, !tbaa !9
  %7 = tail call align 8 ptr @llvm.threadlocal.address.p0(ptr align 8 @_Py_tss_tstate)
  %8 = load ptr, ptr %7, align 8, !tbaa !10
  %.not = icmp eq ptr %8, null
  br i1 %.not, label %astfold_mod.exit.thread, label %9

9:                                                ; preds = %4
  %10 = getelementptr inbounds nuw i8, ptr %8, i64 52
  %11 = load i32, ptr %10, align 4, !tbaa !13
  %12 = sub i32 10000, %11
  %13 = getelementptr inbounds nuw i8, ptr %5, i64 8
  store i32 %12, ptr %13, align 4, !tbaa !24
  %14 = getelementptr inbounds nuw i8, ptr %5, i64 12
  store i32 10000, ptr %14, align 4, !tbaa !25
  %15 = load i32, ptr %0, align 8, !tbaa !26
  switch i32 %15, label %astfold_mod.exit [
    i32 1, label %16
    i32 2, label %20
    i32 3, label %35
  ]

16:                                               ; preds = %9
  %17 = getelementptr inbounds nuw i8, ptr %0, i64 8
  %18 = load ptr, ptr %17, align 8, !tbaa !28
  %19 = call fastcc i32 @astfold_body(ptr noundef %18, ptr noundef %1, ptr noundef nonnull %5)
  %.not27.i = icmp eq i32 %19, 0
  br i1 %.not27.i, label %astfold_mod.exit.thread, label %astfold_mod.exit

20:                                               ; preds = %9
  %21 = getelementptr inbounds nuw i8, ptr %0, i64 8
  %22 = load ptr, ptr %21, align 8, !tbaa !28
  %23 = icmp eq ptr %22, null
  %24 = getelementptr inbounds nuw i8, ptr %22, i64 16
  br i1 %23, label %astfold_mod.exit, label %.split.i

.split.i:                                         ; preds = %20
  %25 = load i64, ptr %22, align 8, !tbaa !29
  %26 = icmp sgt i64 %25, 0
  br i1 %26, label %.lr.ph.i, label %astfold_mod.exit

.lr.ph.i:                                         ; preds = %.split.i, %.critedge.i
  %27 = phi i64 [ %32, %.critedge.i ], [ %25, %.split.i ]
  %.02229.i = phi i64 [ %33, %.critedge.i ], [ 0, %.split.i ]
  %28 = getelementptr [1 x ptr], ptr %24, i64 0, i64 %.02229.i
  %29 = load ptr, ptr %28, align 8, !tbaa !31
  %.not25.i = icmp eq ptr %29, null
  br i1 %.not25.i, label %.critedge.i, label %30

30:                                               ; preds = %.lr.ph.i
  %31 = call fastcc i32 @astfold_stmt(ptr noundef %29, ptr noundef %1, ptr noundef nonnull %5)
  %.not26.i = icmp eq i32 %31, 0
  br i1 %.not26.i, label %astfold_mod.exit.thread, label %..critedge_crit_edge.i

..critedge_crit_edge.i:                           ; preds = %30
  %.pre.i = load i64, ptr %22, align 8, !tbaa !29
  br label %.critedge.i

.critedge.i:                                      ; preds = %..critedge_crit_edge.i, %.lr.ph.i
  %32 = phi i64 [ %.pre.i, %..critedge_crit_edge.i ], [ %27, %.lr.ph.i ]
  %33 = add nuw nsw i64 %.02229.i, 1
  %34 = icmp slt i64 %33, %32
  br i1 %34, label %.lr.ph.i, label %astfold_mod.exit, !llvm.loop !33

35:                                               ; preds = %9
  %36 = getelementptr inbounds nuw i8, ptr %0, i64 8
  %37 = load ptr, ptr %36, align 8, !tbaa !28
  %38 = call fastcc i32 @astfold_expr(ptr noundef %37, ptr noundef %1, ptr noundef nonnull %5)
  %.not.i = icmp eq i32 %38, 0
  br i1 %.not.i, label %astfold_mod.exit.thread, label %astfold_mod.exit

astfold_mod.exit:                                 ; preds = %.critedge.i, %35, %.split.i, %20, %16, %9
  %39 = load i32, ptr %13, align 4, !tbaa !24
  %.not16 = icmp eq i32 %39, %12
  br i1 %.not16, label %astfold_mod.exit.thread, label %40

40:                                               ; preds = %astfold_mod.exit
  %41 = load ptr, ptr @PyExc_SystemError, align 8, !tbaa !35
  %42 = call ptr (ptr, ptr, ...) @PyErr_Format(ptr noundef %41, ptr noundef nonnull @.str, i32 noundef %12, i32 noundef %39) #8
  br label %astfold_mod.exit.thread

astfold_mod.exit.thread:                          ; preds = %30, %35, %16, %40, %astfold_mod.exit, %4
  %.0 = phi i32 [ 0, %4 ], [ 0, %40 ], [ 1, %astfold_mod.exit ], [ 0, %16 ], [ 0, %35 ], [ 0, %30 ]
  call void @llvm.lifetime.end.p0(i64 16, ptr nonnull %5) #8
  ret i32 %.0
}